ccopy_reg
_reconstructor
p1
(cutil
Counter
p2
c__builtin__
dict
p3
(dp4
S'stop'
p5
F-1.3773700120863633e+93
sS'enemy1-food-held'
p6
F-3.2898532202269671e+35
sS'enemy-food-left-after'
p7
F-2.7253435014502037e+92
sS'eats-capsule'
p8
F-8.5402327636528475e+35
sS'num-danger-ghosts-1-away'
p9
F-9.9940814542259699e+92
sS'pacmen-eaten'
p10
F-9.7940495314847128e+32
sS'distance-to-teammate'
p11
F-8.1760305043506064e+92
sS'food-holding'
p12
F0
sS'eats-food'
p13
F-1.4067724233920375e+55
sS'next-score'
p14
F2.0802311311033523e+35
sS'enemy2-food-held'
p15
F-2857817225644133
sS'closest-food'
p16
F8.368934064117059e+90
sS'suicide'
p17
F-5.2998557643436076e+84
sS'distance-to-enemy-capsule'
p18
F-2.9396054583734891e+34
sS'num-edible-pac-1-away'
p19
F1.4625882326855594e+35
sS'my-food-left-after'
p20
F-5.4506870029004074e+92
sS'ghost-proximity'
p21
F-5.3124477264183904e+94
sS'num-scared-ghosts-1-away'
p22
F-8.5402327636528475e+35
stRp23
.