ccopy_reg
_reconstructor
p1
(cutil
Counter
p2
c__builtin__
dict
p3
(dp4
S'stop'
p5
F-9.5514743044358356e+26
sS'enemy1-food-held'
p6
F3.7484142554081431e+27
sS'enemy-food-left-after'
p7
F1.4129611012159877e+27
sS'eats-capsule'
p8
F1.2037344251857576
sS'num-danger-ghosts-1-away'
p9
F769015988158.54578
sS'pacmen-eaten'
p10
F1.7183858174123928e+26
sS'distance-to-teammate'
p11
F4.3679769371810674e+25
sS'food-holding'
p12
F0
sS'eats-food'
p13
F2.066869333103496e+28
sS'next-score'
p14
F5.3745545732878794e+25
sS'enemy2-food-held'
p15
F9.0828507535256389e+26
sS'closest-food'
p16
F3.5359807534057305e+27
sS'suicide'
p17
F-3.845003042346875e+20
sS'distance-to-enemy-capsule'
p18
F3.5665766792660589e+26
sS'num-edible-pac-1-away'
p19
F2.6657020310704711e+26
sS'my-food-left-after'
p20
F9.48200659230205e+26
sS'ghost-proximity'
p21
F-3.796838445404308e+30
sS'num-super-pac-1-away'
p22
I0
stRp23
.