ccopy_reg
_reconstructor
p1
(cutil
Counter
p2
c__builtin__
dict
p3
(dp4
S'stop'
p5
F-nan
sS'enemy1-food-held'
p6
F-nan
sS'enemy-food-left-after'
p7
F-nan
sS'eats-capsule'
p8
F-nan
sS'num-danger-ghosts-1-away'
p9
F-nan
sS'pacmen-eaten'
p10
F-nan
sS'distance-to-teammate'
p11
F-nan
sS'food-holding'
p12
F-nan
sS'eats-food'
p13
F-nan
sS'next-score'
p14
F-nan
sS'enemy2-food-held'
p15
F-nan
sS'closest-food'
p16
F-nan
sS'suicide'
p17
F-nan
sS'distance-to-enemy-capsule'
p18
F-nan
sS'num-edible-pac-1-away'
p19
F-nan
sS'my-food-left-after'
p20
F-nan
sS'ghost-proximity'
p21
F-nan
sS'num-super-pac-1-away'
p22
I0
stRp23
.