ccopy_reg
_reconstructor
p1
(cutil
Counter
p2
c__builtin__
dict
p3
(dp4
S'ghosts-busted'
p5
I0
sS'stop'
p6
F518107436.80457854
sS'enemy1-food-held'
p7
F1333908530.3773568
sS'enemy-food-left-after'
p8
F1464430883.3096654
sS'eats-capsule'
p9
F-99.167316696141398
sS'ghost-proximity'
p10
F73277220391.635895
sS'pacmen-eaten'
p11
F67625031.874347717
sS'distance-to-teammate'
p12
F-635391.79951624759
sS'food-holding'
p13
F0
sS'eats-food'
p14
F26.885685261463596
sS'next-score'
p15
F221871886.37220979
sS'enemy2-food-held'
p16
F-436409783.18651706
sS'closest-food'
p17
F-138848123.49069074
sS'suicide'
p18
I0
sS'distance-to-enemy-capsule'
p19
F91107.062013523653
sS'num-edible-pac-1-away'
p20
F156168768.58718669
sS'my-food-left-after'
p21
F-1619857861.2637048
sS'num-danger-ghosts-1-away'
p22
F68645475457.793488
sS'num-scared-ghosts-1-away'
p23
F43.487133438158821
stRp24
.